target datalayout = "e-m:e-p270:32:32-p271:32:32-p272:64:64-i64:64-i128:128-f80:128-n8:16:32:64-S128"
target triple = "x86_64-pc-linux-gnu"

%struct._php_stream = type { ptr, ptr, %struct._php_stream_filter_chain, %struct._php_stream_filter_chain, ptr, ptr, %struct._zval_struct, i16, [16 x i8], i32, ptr, ptr, ptr, ptr, i64, ptr, i64, i64, i64, i64, ptr }
%struct._php_stream_filter_chain = type { ptr, ptr, ptr }
%struct._zval_struct = type { %union._zend_value, %union.anon, %union.anon.2 }
%union._zend_value = type { i64 }
%union.anon = type { i32 }
%union.anon.2 = type { i32 }
%struct.glob_s_t = type { %struct.glob_t, i64, i32, ptr, i64, ptr, i64, ptr, i64, i8 }
%struct.glob_t = type { i64, ptr, i64, i32, ptr, ptr, ptr, ptr, ptr }

; Function Attrs: nounwind uwtable
define ptr @_php_glob_stream_get_path(ptr noundef %0, ptr noundef %1) #0 {
  %3 = alloca ptr, align 8
  %4 = alloca ptr, align 8
  %5 = alloca ptr, align 8
  %6 = alloca ptr, align 8
  store ptr %0, ptr %4, align 8
  store ptr %1, ptr %5, align 8
  %7 = load ptr, ptr %4, align 8
  %8 = getelementptr inbounds %struct._php_stream, ptr %7, i32 0, i32 1
  %9 = load ptr, ptr %8, align 8
  store ptr %9, ptr %6, align 8
  %10 = load ptr, ptr %6, align 8
  %11 = icmp ne ptr %10, null
  br i1 %11, label %12, label %29

12:                                               ; preds = %2
  %13 = load ptr, ptr %6, align 8
  %14 = getelementptr inbounds %struct.glob_s_t, ptr %13, i32 0, i32 3
  %15 = load ptr, ptr %14, align 8
  %16 = icmp ne ptr %15, null
  br i1 %16, label %17, label %29

17:                                               ; preds = %12
  %18 = load ptr, ptr %5, align 8
  %19 = icmp ne ptr %18, null
  br i1 %19, label %20, label %25

20:                                               ; preds = %17
  %21 = load ptr, ptr %6, align 8
  %22 = getelementptr inbounds %struct.glob_s_t, ptr %21, i32 0, i32 4
  %23 = load i64, ptr %22, align 8
  %24 = load ptr, ptr %5, align 8
  store i64 %23, ptr %24, align 8
  br label %25

25:                                               ; preds = %20, %17
  %26 = load ptr, ptr %6, align 8
  %27 = getelementptr inbounds %struct.glob_s_t, ptr %26, i32 0, i32 3
  %28 = load ptr, ptr %27, align 8
  store ptr %28, ptr %3, align 8
  br label %35

29:                                               ; preds = %12, %2
  %30 = load ptr, ptr %5, align 8
  %31 = icmp ne ptr %30, null
  br i1 %31, label %32, label %34

32:                                               ; preds = %29
  %33 = load ptr, ptr %5, align 8
  store i64 0, ptr %33, align 8
  br label %34

34:                                               ; preds = %32, %29
  store ptr null, ptr %3, align 8
  br label %35

35:                                               ; preds = %34, %25
  %36 = load ptr, ptr %3, align 8
  ret ptr %36
}