; Function Attrs: mustprogress nofree norecurse nosync nounwind willreturn memory(read, argmem: readwrite, inaccessiblemem: none) uwtable
define ptr @_php_glob_stream_get_path(ptr nocapture noundef readonly %0, ptr noundef writeonly %1) local_unnamed_addr #0 {
  %3 = getelementptr inbounds i8, ptr %0, i64 8
  %4 = load ptr, ptr %3, align 8
  %.not = icmp eq ptr %4, null
  br i1 %.not, label %12, label %5

5:                                                ; preds = %2
  %6 = getelementptr inbounds i8, ptr %4, i64 88
  %7 = load ptr, ptr %6, align 8
  %.not12 = icmp eq ptr %7, null
  br i1 %.not12, label %12, label %8

8:                                                ; preds = %5
  %.not14 = icmp eq ptr %1, null
  br i1 %.not14, label %14, label %9

9:                                                ; preds = %8
  %10 = getelementptr inbounds i8, ptr %4, i64 96
  %11 = load i64, ptr %10, align 8
  store i64 %11, ptr %1, align 8
  %.pre = load ptr, ptr %6, align 8
  br label %14

12:                                               ; preds = %5, %2
  %.not13 = icmp eq ptr %1, null
  br i1 %.not13, label %14, label %13

13:                                               ; preds = %12
  store i64 0, ptr %1, align 8
  br label %14

14:                                               ; preds = %8, %9, %12, %13
  %.0 = phi ptr [ null, %13 ], [ null, %12 ], [ %.pre, %9 ], [ %7, %8 ]
  ret ptr %.0
}